target datalayout = "e-m:e-p270:32:32-p271:32:32-p272:64:64-i64:64-i128:128-f80:128-n8:16:32:64-S128"
target triple = "x86_64-unknown-linux-gnu"

%struct.aiNode = type { %struct.aiString, %class.aiMatrix4x4t, ptr, i32, ptr, i32, ptr, ptr }
%struct.aiString = type { i32, [1024 x i8] }
%class.aiMatrix4x4t = type { float, float, float, float, float, float, float, float, float, float, float, float, float, float, float, float }
%"struct.std::_Vector_base" = type { %"struct.std::_Vector_base<unsigned int, std::allocator<unsigned int>>::_Vector_impl" }
%"struct.std::_Vector_base<unsigned int, std::allocator<unsigned int>>::_Vector_impl" = type { %"struct.std::_Vector_base<unsigned int, std::allocator<unsigned int>>::_Vector_impl_data" }
%"struct.std::_Vector_base<unsigned int, std::allocator<unsigned int>>::_Vector_impl_data" = type { ptr, ptr, ptr }

; Function Attrs: mustprogress nounwind uwtable
define linkonce_odr noundef nonnull align 4 dereferenceable(4) ptr @_ZNKSt6vectorIjSaIjEEixEm(ptr noundef nonnull align 8 dereferenceable(24) %this, i64 noundef %__n) #0 comdat align 2 {
entry:
  %this.addr = alloca ptr, align 8
  %__n.addr = alloca i64, align 8
  store ptr %this, ptr %this.addr, align 8
  store i64 %__n, ptr %__n.addr, align 8
  %this1 = load ptr, ptr %this.addr, align 8
  %_M_impl = getelementptr inbounds %"struct.std::_Vector_base", ptr %this1, i32 0, i32 0
  %_M_start = getelementptr inbounds %"struct.std::_Vector_base<unsigned int, std::allocator<unsigned int>>::_Vector_impl_data", ptr %_M_impl, i32 0, i32 0
  %0 = load ptr, ptr %_M_start, align 8
  %1 = load i64, ptr %__n.addr, align 8
  %add.ptr = getelementptr inbounds i32, ptr %0, i64 %1
  ret ptr %add.ptr
}

; Function Attrs: mustprogress uwtable
define hidden void @_Z11UpdateNodesRKSt6vectorIjSaIjEEP6aiNode(ptr noundef nonnull align 8 dereferenceable(24) %replaceMeshIndex, ptr noundef %node) #3 {
entry:
  %replaceMeshIndex.addr = alloca ptr, align 8
  %node.addr = alloca ptr, align 8
  %newSize = alloca i32, align 4
  %m = alloca i32, align 4
  %add = alloca i32, align 4
  %i = alloca i32, align 4
  %newMeshes = alloca ptr, align 8
  %saved-rvalue = alloca ptr, align 8
  %saved-rvalue21 = alloca i64, align 8
  %cleanup.cond = alloca i1, align 1
  %m23 = alloca i32, align 4
  %add28 = alloca i32, align 4
  %i33 = alloca i32, align 4
  %m64 = alloca i32, align 4
  store ptr %replaceMeshIndex, ptr %replaceMeshIndex.addr, align 8
  store ptr %node, ptr %node.addr, align 8
  %0 = load ptr, ptr %node.addr, align 8
  %mNumMeshes = getelementptr inbounds %struct.aiNode, ptr %0, i32 0, i32 5
  %1 = load i32, ptr %mNumMeshes, align 8
  %tobool = icmp ne i32 %1, 0
  br i1 %tobool, label %if.then, label %if.end63

if.then:                                          ; preds = %entry
  store i32 0, ptr %newSize, align 4
  store i32 0, ptr %m, align 4
  br label %for.cond

for.cond:                                         ; preds = %for.inc9, %if.then
  %2 = load i32, ptr %m, align 4
  %3 = load ptr, ptr %node.addr, align 8
  %mNumMeshes1 = getelementptr inbounds %struct.aiNode, ptr %3, i32 0, i32 5
  %4 = load i32, ptr %mNumMeshes1, align 8
  %cmp = icmp ult i32 %2, %4
  br i1 %cmp, label %for.body, label %for.end11

for.body:                                         ; preds = %for.cond
  %5 = load ptr, ptr %node.addr, align 8
  %mMeshes = getelementptr inbounds %struct.aiNode, ptr %5, i32 0, i32 6
  %6 = load ptr, ptr %mMeshes, align 8
  %7 = load i32, ptr %m, align 4
  %idxprom = zext i32 %7 to i64
  %arrayidx = getelementptr inbounds i32, ptr %6, i64 %idxprom
  %8 = load i32, ptr %arrayidx, align 4
  %shl = shl i32 %8, 2
  store i32 %shl, ptr %add, align 4
  store i32 0, ptr %i, align 4
  br label %for.cond2

for.cond2:                                        ; preds = %for.inc, %for.body
  %9 = load i32, ptr %i, align 4
  %cmp3 = icmp ult i32 %9, 4
  br i1 %cmp3, label %for.body4, label %for.end

for.body4:                                        ; preds = %for.cond2
  %10 = load ptr, ptr %replaceMeshIndex.addr, align 8
  %11 = load i32, ptr %add, align 4
  %12 = load i32, ptr %i, align 4
  %add5 = add i32 %11, %12
  %conv = zext i32 %add5 to i64
  %call = call noundef nonnull align 4 dereferenceable(4) ptr @_ZNKSt6vectorIjSaIjEEixEm(ptr noundef nonnull align 8 dereferenceable(24) %10, i64 noundef %conv) #13
  %13 = load i32, ptr %call, align 4
  %cmp6 = icmp ne i32 -1, %13
  br i1 %cmp6, label %if.then7, label %if.end

if.then7:                                         ; preds = %for.body4
  %14 = load i32, ptr %newSize, align 4
  %inc = add i32 %14, 1
  store i32 %inc, ptr %newSize, align 4
  br label %if.end

if.end:                                           ; preds = %if.then7, %for.body4
  br label %for.inc

for.inc:                                          ; preds = %if.end
  %15 = load i32, ptr %i, align 4
  %inc8 = add i32 %15, 1
  store i32 %inc8, ptr %i, align 4
  br label %for.cond2, !llvm.loop !4

for.end:                                          ; preds = %for.cond2
  br label %for.inc9

for.inc9:                                         ; preds = %for.end
  %16 = load i32, ptr %m, align 4
  %inc10 = add i32 %16, 1
  store i32 %inc10, ptr %m, align 4
  br label %for.cond, !llvm.loop !6

for.end11:                                        ; preds = %for.cond
  %17 = load i32, ptr %newSize, align 4
  %tobool12 = icmp ne i32 %17, 0
  br i1 %tobool12, label %if.else, label %if.then13

if.then13:                                        ; preds = %for.end11
  %18 = load ptr, ptr %node.addr, align 8
  %mMeshes14 = getelementptr inbounds %struct.aiNode, ptr %18, i32 0, i32 6
  %19 = load ptr, ptr %mMeshes14, align 8
  %isnull = icmp eq ptr %19, null
  br i1 %isnull, label %delete.end, label %delete.notnull

delete.notnull:                                   ; preds = %if.then13
  call void @_ZdaPv(ptr noundef %19) #14
  br label %delete.end

delete.end:                                       ; preds = %delete.notnull, %if.then13
  %20 = load ptr, ptr %node.addr, align 8
  %mNumMeshes15 = getelementptr inbounds %struct.aiNode, ptr %20, i32 0, i32 5
  store i32 0, ptr %mNumMeshes15, align 8
  %21 = load ptr, ptr %node.addr, align 8
  %mMeshes16 = getelementptr inbounds %struct.aiNode, ptr %21, i32 0, i32 6
  store ptr null, ptr %mMeshes16, align 8
  br label %if.end62

if.else:                                          ; preds = %for.end11
  %22 = load i32, ptr %newSize, align 4
  %23 = load ptr, ptr %node.addr, align 8
  %mNumMeshes17 = getelementptr inbounds %struct.aiNode, ptr %23, i32 0, i32 5
  %24 = load i32, ptr %mNumMeshes17, align 8
  %cmp18 = icmp ugt i32 %22, %24
  store i1 false, ptr %cleanup.cond, align 1
  br i1 %cmp18, label %cond.true, label %cond.false

cond.true:                                        ; preds = %if.else
  %25 = load i32, ptr %newSize, align 4
  %conv19 = zext i32 %25 to i64
  %26 = call { i64, i1 } @llvm.umul.with.overflow.i64(i64 %conv19, i64 4)
  %27 = extractvalue { i64, i1 } %26, 1
  %28 = extractvalue { i64, i1 } %26, 0
  %29 = select i1 %27, i64 -1, i64 %28
  %call20 = call noalias noundef nonnull ptr @_Znam(i64 noundef %29) #15
  store ptr %call20, ptr %saved-rvalue, align 8
  store i64 %29, ptr %saved-rvalue21, align 8
  store i1 true, ptr %cleanup.cond, align 1
  br label %cond.end

cond.false:                                       ; preds = %if.else
  %30 = load ptr, ptr %node.addr, align 8
  %mMeshes22 = getelementptr inbounds %struct.aiNode, ptr %30, i32 0, i32 6
  %31 = load ptr, ptr %mMeshes22, align 8
  br label %cond.end

cond.end:                                         ; preds = %cond.false, %cond.true
  %cond = phi ptr [ %call20, %cond.true ], [ %31, %cond.false ]
  store ptr %cond, ptr %newMeshes, align 8
  store i32 0, ptr %m23, align 4
  br label %for.cond24

for.cond24:                                       ; preds = %for.inc49, %cond.end
  %32 = load i32, ptr %m23, align 4
  %33 = load ptr, ptr %node.addr, align 8
  %mNumMeshes25 = getelementptr inbounds %struct.aiNode, ptr %33, i32 0, i32 5
  %34 = load i32, ptr %mNumMeshes25, align 8
  %cmp26 = icmp ult i32 %32, %34
  br i1 %cmp26, label %for.body27, label %for.end51

for.body27:                                       ; preds = %for.cond24
  %35 = load ptr, ptr %node.addr, align 8
  %mMeshes29 = getelementptr inbounds %struct.aiNode, ptr %35, i32 0, i32 6
  %36 = load ptr, ptr %mMeshes29, align 8
  %37 = load i32, ptr %m23, align 4
  %idxprom30 = zext i32 %37 to i64
  %arrayidx31 = getelementptr inbounds i32, ptr %36, i64 %idxprom30
  %38 = load i32, ptr %arrayidx31, align 4
  %shl32 = shl i32 %38, 2
  store i32 %shl32, ptr %add28, align 4
  store i32 0, ptr %i33, align 4
  br label %for.cond34

for.cond34:                                       ; preds = %for.inc46, %for.body27
  %39 = load i32, ptr %i33, align 4
  %cmp35 = icmp ult i32 %39, 4
  br i1 %cmp35, label %for.body36, label %for.end48

for.body36:                                       ; preds = %for.cond34
  %40 = load ptr, ptr %replaceMeshIndex.addr, align 8
  %41 = load i32, ptr %add28, align 4
  %42 = load i32, ptr %i33, align 4
  %add37 = add i32 %41, %42
  %conv38 = zext i32 %add37 to i64
  %call39 = call noundef nonnull align 4 dereferenceable(4) ptr @_ZNKSt6vectorIjSaIjEEixEm(ptr noundef nonnull align 8 dereferenceable(24) %40, i64 noundef %conv38) #13
  %43 = load i32, ptr %call39, align 4
  %cmp40 = icmp ne i32 -1, %43
  br i1 %cmp40, label %if.then41, label %if.end45

if.then41:                                        ; preds = %for.body36
  %44 = load ptr, ptr %replaceMeshIndex.addr, align 8
  %45 = load i32, ptr %add28, align 4
  %46 = load i32, ptr %i33, align 4
  %add42 = add i32 %45, %46
  %conv43 = zext i32 %add42 to i64
  %call44 = call noundef nonnull align 4 dereferenceable(4) ptr @_ZNKSt6vectorIjSaIjEEixEm(ptr noundef nonnull align 8 dereferenceable(24) %44, i64 noundef %conv43) #13
  %47 = load i32, ptr %call44, align 4
  %48 = load ptr, ptr %newMeshes, align 8
  %incdec.ptr = getelementptr inbounds i32, ptr %48, i32 1
  store ptr %incdec.ptr, ptr %newMeshes, align 8
  store i32 %47, ptr %48, align 4
  br label %if.end45

if.end45:                                         ; preds = %if.then41, %for.body36
  br label %for.inc46

for.inc46:                                        ; preds = %if.end45
  %49 = load i32, ptr %i33, align 4
  %inc47 = add i32 %49, 1
  store i32 %inc47, ptr %i33, align 4
  br label %for.cond34, !llvm.loop !7

for.end48:                                        ; preds = %for.cond34
  br label %for.inc49

for.inc49:                                        ; preds = %for.end48
  %50 = load i32, ptr %m23, align 4
  %inc50 = add i32 %50, 1
  store i32 %inc50, ptr %m23, align 4
  br label %for.cond24, !llvm.loop !8

for.end51:                                        ; preds = %for.cond24
  %51 = load i32, ptr %newSize, align 4
  %52 = load ptr, ptr %node.addr, align 8
  %mNumMeshes52 = getelementptr inbounds %struct.aiNode, ptr %52, i32 0, i32 5
  %53 = load i32, ptr %mNumMeshes52, align 8
  %cmp53 = icmp ugt i32 %51, %53
  br i1 %cmp53, label %if.then54, label %if.end59

if.then54:                                        ; preds = %for.end51
  %54 = load ptr, ptr %node.addr, align 8
  %mMeshes55 = getelementptr inbounds %struct.aiNode, ptr %54, i32 0, i32 6
  %55 = load ptr, ptr %mMeshes55, align 8
  %isnull56 = icmp eq ptr %55, null
  br i1 %isnull56, label %delete.end58, label %delete.notnull57

delete.notnull57:                                 ; preds = %if.then54
  call void @_ZdaPv(ptr noundef %55) #14
  br label %delete.end58

delete.end58:                                     ; preds = %delete.notnull57, %if.then54
  br label %if.end59

if.end59:                                         ; preds = %delete.end58, %for.end51
  %56 = load ptr, ptr %newMeshes, align 8
  %57 = load i32, ptr %newSize, align 4
  %58 = load ptr, ptr %node.addr, align 8
  %mNumMeshes60 = getelementptr inbounds %struct.aiNode, ptr %58, i32 0, i32 5
  store i32 %57, ptr %mNumMeshes60, align 8
  %idx.ext = zext i32 %57 to i64
  %idx.neg = sub i64 0, %idx.ext
  %add.ptr = getelementptr inbounds i32, ptr %56, i64 %idx.neg
  %59 = load ptr, ptr %node.addr, align 8
  %mMeshes61 = getelementptr inbounds %struct.aiNode, ptr %59, i32 0, i32 6
  store ptr %add.ptr, ptr %mMeshes61, align 8
  br label %if.end62

if.end62:                                         ; preds = %if.end59, %delete.end
  br label %if.end63

if.end63:                                         ; preds = %if.end62, %entry
  store i32 0, ptr %m64, align 4
  br label %for.cond65

for.cond65:                                       ; preds = %for.inc70, %if.end63
  %60 = load i32, ptr %m64, align 4
  %61 = load ptr, ptr %node.addr, align 8
  %mNumChildren = getelementptr inbounds %struct.aiNode, ptr %61, i32 0, i32 3
  %62 = load i32, ptr %mNumChildren, align 8
  %cmp66 = icmp ult i32 %60, %62
  br i1 %cmp66, label %for.body67, label %for.end72

for.body67:                                       ; preds = %for.cond65
  %63 = load ptr, ptr %replaceMeshIndex.addr, align 8
  %64 = load ptr, ptr %node.addr, align 8
  %mChildren = getelementptr inbounds %struct.aiNode, ptr %64, i32 0, i32 4
  %65 = load ptr, ptr %mChildren, align 8
  %66 = load i32, ptr %m64, align 4
  %idxprom68 = zext i32 %66 to i64
  %arrayidx69 = getelementptr inbounds ptr, ptr %65, i64 %idxprom68
  %67 = load ptr, ptr %arrayidx69, align 8
  call void @_Z11UpdateNodesRKSt6vectorIjSaIjEEP6aiNode(ptr noundef nonnull align 8 dereferenceable(24) %63, ptr noundef %67)
  br label %for.inc70

for.inc70:                                        ; preds = %for.body67
  %68 = load i32, ptr %m64, align 4
  %inc71 = add i32 %68, 1
  store i32 %inc71, ptr %m64, align 4
  br label %for.cond65, !llvm.loop !9

for.end72:                                        ; preds = %for.cond65
  ret void
}