; Function Attrs: mustprogress uwtable
define hidden void @_Z11UpdateNodesRKSt6vectorIjSaIjEEP6aiNode(ptr nocapture noundef nonnull readonly align 8 dereferenceable(24) %replaceMeshIndex, ptr nocapture noundef %node) local_unnamed_addr #3 {
entry:
  %mNumMeshes = getelementptr inbounds i8, ptr %node, i64 1120
  %0 = load i32, ptr %mNumMeshes, align 8
  %tobool.not = icmp eq i32 %0, 0
  br i1 %tobool.not, label %if.end63, label %for.cond.preheader

for.cond.preheader:                               ; preds = %entry
  %mMeshes = getelementptr inbounds i8, ptr %node, i64 1128
  %1 = load ptr, ptr %mMeshes, align 8
  %2 = load ptr, ptr %replaceMeshIndex, align 8
  %wide.trip.count = zext i32 %0 to i64
  br label %for.body

for.body:                                         ; preds = %for.cond.preheader, %for.inc9
  %indvars.iv57 = phi i64 [ 0, %for.cond.preheader ], [ %indvars.iv.next58, %for.inc9 ]
  %newSize.045 = phi i32 [ 0, %for.cond.preheader ], [ %spec.select, %for.inc9 ]
  %arrayidx = getelementptr inbounds i32, ptr %1, i64 %indvars.iv57
  %3 = load i32, ptr %arrayidx, align 4
  %shl = shl i32 %3, 2
  %4 = zext i32 %shl to i64
  %invariant.gep = getelementptr i32, ptr %2, i64 %4
  br label %for.body4

for.body4:                                        ; preds = %for.body, %for.body4
  %indvars.iv = phi i64 [ 0, %for.body ], [ %indvars.iv.next, %for.body4 ]
  %newSize.143 = phi i32 [ %newSize.045, %for.body ], [ %spec.select, %for.body4 ]
  %gep = getelementptr i32, ptr %invariant.gep, i64 %indvars.iv
  %5 = load i32, ptr %gep, align 4
  %cmp6.not = icmp ne i32 %5, -1
  %inc = zext i1 %cmp6.not to i32
  %spec.select = add i32 %newSize.143, %inc
  %indvars.iv.next = add nuw nsw i64 %indvars.iv, 1
  %exitcond.not = icmp eq i64 %indvars.iv.next, 4
  br i1 %exitcond.not, label %for.inc9, label %for.body4, !llvm.loop !4

for.inc9:                                         ; preds = %for.body4
  %indvars.iv.next58 = add nuw nsw i64 %indvars.iv57, 1
  %exitcond60.not = icmp eq i64 %indvars.iv.next58, %wide.trip.count
  br i1 %exitcond60.not, label %for.end11, label %for.body, !llvm.loop !6

for.end11:                                        ; preds = %for.inc9
  %tobool12.not = icmp eq i32 %spec.select, 0
  br i1 %tobool12.not, label %if.then13, label %if.else

if.then13:                                        ; preds = %for.end11
  %isnull = icmp eq ptr %1, null
  br i1 %isnull, label %delete.end, label %delete.notnull

delete.notnull:                                   ; preds = %if.then13
  tail call void @_ZdaPv(ptr noundef nonnull %1) #16
  br label %delete.end

delete.end:                                       ; preds = %delete.notnull, %if.then13
  store i32 0, ptr %mNumMeshes, align 8
  br label %if.end63.sink.split

if.else:                                          ; preds = %for.end11
  %cmp18 = icmp ugt i32 %spec.select, %0
  br i1 %cmp18, label %cond.true, label %for.body27.preheader

cond.true:                                        ; preds = %if.else
  %conv19 = zext i32 %spec.select to i64
  %6 = shl nuw nsw i64 %conv19, 2
  %call20 = tail call noalias noundef nonnull ptr @_Znam(i64 noundef %6) #17
  br label %for.body27.preheader

for.body27.preheader:                             ; preds = %cond.true, %if.else
  %newMeshes.049.ph = phi ptr [ %1, %if.else ], [ %call20, %cond.true ]
  br label %for.body27

for.body27:                                       ; preds = %for.body27.preheader, %for.inc49
  %indvars.iv66 = phi i64 [ %indvars.iv.next67, %for.inc49 ], [ 0, %for.body27.preheader ]
  %newMeshes.049 = phi ptr [ %newMeshes.2, %for.inc49 ], [ %newMeshes.049.ph, %for.body27.preheader ]
  %7 = load ptr, ptr %mMeshes, align 8
  %arrayidx31 = getelementptr inbounds i32, ptr %7, i64 %indvars.iv66
  %8 = load i32, ptr %arrayidx31, align 4
  %shl32 = shl i32 %8, 2
  %9 = zext i32 %shl32 to i64
  br label %for.body36

for.body36:                                       ; preds = %for.body27, %for.inc46
  %indvars.iv61 = phi i64 [ 0, %for.body27 ], [ %indvars.iv.next62, %for.inc46 ]
  %newMeshes.146 = phi ptr [ %newMeshes.049, %for.body27 ], [ %newMeshes.2, %for.inc46 ]
  %10 = load ptr, ptr %replaceMeshIndex, align 8
  %11 = getelementptr i32, ptr %10, i64 %indvars.iv61
  %add.ptr.i40 = getelementptr i32, ptr %11, i64 %9
  %12 = load i32, ptr %add.ptr.i40, align 4
  %cmp40.not = icmp eq i32 %12, -1
  br i1 %cmp40.not, label %for.inc46, label %if.then41

if.then41:                                        ; preds = %for.body36
  %incdec.ptr = getelementptr inbounds i8, ptr %newMeshes.146, i64 4
  store i32 %12, ptr %newMeshes.146, align 4
  br label %for.inc46

for.inc46:                                        ; preds = %for.body36, %if.then41
  %newMeshes.2 = phi ptr [ %incdec.ptr, %if.then41 ], [ %newMeshes.146, %for.body36 ]
  %indvars.iv.next62 = add nuw nsw i64 %indvars.iv61, 1
  %exitcond65.not = icmp eq i64 %indvars.iv.next62, 4
  br i1 %exitcond65.not, label %for.inc49, label %for.body36, !llvm.loop !7

for.inc49:                                        ; preds = %for.inc46
  %indvars.iv.next67 = add nuw nsw i64 %indvars.iv66, 1
  %13 = load i32, ptr %mNumMeshes, align 8
  %14 = zext i32 %13 to i64
  %cmp26 = icmp ult i64 %indvars.iv.next67, %14
  br i1 %cmp26, label %for.body27, label %for.end51, !llvm.loop !8

for.end51:                                        ; preds = %for.inc49
  %cmp53 = icmp ugt i32 %spec.select, %13
  br i1 %cmp53, label %if.then54, label %if.end59

if.then54:                                        ; preds = %for.end51
  %15 = load ptr, ptr %mMeshes, align 8
  %isnull56 = icmp eq ptr %15, null
  br i1 %isnull56, label %if.end59, label %delete.notnull57

delete.notnull57:                                 ; preds = %if.then54
  tail call void @_ZdaPv(ptr noundef nonnull %15) #16
  br label %if.end59

if.end59:                                         ; preds = %if.then54, %delete.notnull57, %for.end51
  store i32 %spec.select, ptr %mNumMeshes, align 8
  %idx.ext = zext i32 %spec.select to i64
  %idx.neg = sub nsw i64 0, %idx.ext
  %add.ptr = getelementptr inbounds i32, ptr %newMeshes.2, i64 %idx.neg
  br label %if.end63.sink.split

if.end63.sink.split:                              ; preds = %if.end59, %delete.end
  %.sink = phi ptr [ null, %delete.end ], [ %add.ptr, %if.end59 ]
  store ptr %.sink, ptr %mMeshes, align 8
  br label %if.end63

if.end63:                                         ; preds = %if.end63.sink.split, %entry
  %mNumChildren = getelementptr inbounds i8, ptr %node, i64 1104
  %16 = load i32, ptr %mNumChildren, align 8
  %cmp6652.not = icmp eq i32 %16, 0
  br i1 %cmp6652.not, label %for.end72, label %for.body67.lr.ph

for.body67.lr.ph:                                 ; preds = %if.end63
  %mChildren = getelementptr inbounds i8, ptr %node, i64 1112
  br label %for.body67

for.body67:                                       ; preds = %for.body67.lr.ph, %for.body67
  %indvars.iv69 = phi i64 [ 0, %for.body67.lr.ph ], [ %indvars.iv.next70, %for.body67 ]
  %17 = load ptr, ptr %mChildren, align 8
  %arrayidx69 = getelementptr inbounds ptr, ptr %17, i64 %indvars.iv69
  %18 = load ptr, ptr %arrayidx69, align 8
  tail call void @_Z11UpdateNodesRKSt6vectorIjSaIjEEP6aiNode(ptr noundef nonnull align 8 dereferenceable(24) %replaceMeshIndex, ptr noundef %18)
  %indvars.iv.next70 = add nuw nsw i64 %indvars.iv69, 1
  %19 = load i32, ptr %mNumChildren, align 8
  %20 = zext i32 %19 to i64
  %cmp66 = icmp ult i64 %indvars.iv.next70, %20
  br i1 %cmp66, label %for.body67, label %for.end72, !llvm.loop !9

for.end72:                                        ; preds = %for.body67, %if.end63
  ret void
}